; Function Attrs: mustprogress uwtable
define hidden noundef zeroext i1 @_ZN4cvc58internal6theory11quantifiers5Cegis26processConstructCandidatesERKSt6vectorINS0_12NodeTemplateILb1EEESaIS6_EESA_SA_RS8_b(ptr nocapture nonnull readnone align 8 %this, ptr nocapture nonnull readnone align 8 %enums, ptr nocapture noundef nonnull readonly align 8 dereferenceable(24) %enum_values, ptr nocapture nonnull readnone align 8 %candidates, ptr noundef nonnull align 8 dereferenceable(24) %candidate_values, i1 noundef returned zeroext %satisfiedRl) unnamed_addr #3 align 2 {
entry:
  br i1 %satisfiedRl, label %if.then, label %return

if.then:                                          ; preds = %entry
  %_M_finish.i = getelementptr inbounds i8, ptr %candidate_values, i64 8
  %0 = load ptr, ptr %_M_finish.i, align 8
  %1 = load ptr, ptr %enum_values, align 8
  %_M_finish.i3 = getelementptr inbounds i8, ptr %enum_values, i64 8
  %2 = load ptr, ptr %_M_finish.i3, align 8
  %3 = load ptr, ptr %candidate_values, align 8
  %sub.ptr.lhs.cast.i.i = ptrtoint ptr %0 to i64
  %sub.ptr.rhs.cast.i.i = ptrtoint ptr %3 to i64
  %sub.ptr.sub.i.i = sub i64 %sub.ptr.lhs.cast.i.i, %sub.ptr.rhs.cast.i.i
  %add.ptr.i.i = getelementptr inbounds i8, ptr %3, i64 %sub.ptr.sub.i.i
  tail call void @_ZNSt6vectorIN4cvc58internal12NodeTemplateILb1EEESaIS3_EE15_M_range_insertIN9__gnu_cxx17__normal_iteratorIPKS3_S5_EEEEvNS8_IPS3_S5_EET_SE_St20forward_iterator_tag(ptr noundef nonnull align 8 dereferenceable(24) %candidate_values, ptr %add.ptr.i.i, ptr %1, ptr %2)
  br label %return

return:                                           ; preds = %entry, %if.then
  ret i1 %satisfiedRl
}